(dp1
S'opt'
p2
(dp3
I10
(dp4
S'cost'
p5
cnumpy.core.multiarray
scalar
p6
(cnumpy
dtype
p7
(S'f8'
I0
I1
tRp8
(I3
S'<'
NNNI-1
I-1
I0
tbS'\xd6\xce\x19\r\x06LiA'
tRp9
sS'time'
p10
F2269.0339889526367
ssI20
(dp11
g5
g6
(g8
S'u\xa5(\xe0\x0elhA'
tRp12
sg10
F5059.6363849639893
ssI5
(dp13
g5
g6
(g8
S'\xf6\xaa\xb9c\x15%jA'
tRp14
sg10
F1499.6655550003052
ssI15
(dp15
g5
g6
(g8
S'\xa7\x00\xfa\x14\xcd\xcchA'
tRp16
sg10
F5214.0603280067444
sssS'sketch'
p17
(dp18
s.