(dp1
S'opt'
p2
(dp3
I10
(dp4
S'cost'
p5
cnumpy.core.multiarray
scalar
p6
(cnumpy
dtype
p7
(S'f8'
I0
I1
tRp8
(I3
S'<'
NNNI-1
I-1
I0
tbS'L\x86NO_\xfd\xbeA'
tRp9
sS'time'
p10
F2568.880429983139
ssI20
(dp11
g5
g6
(g8
S'\xd1\xb3tI\xc6&\xbdA'
tRp12
sg10
F6117.1450970172882
ssI5
(dp13
g5
g6
(g8
S'\xe5\x02\xce\xe5\x95\x9a\xc0A'
tRp14
sg10
F980.3581850528717
ssI15
(dp15
g5
g6
(g8
S'\xbb\xea\xc3/m\xc1\xbdA'
tRp16
sg10
F3899.1141710281372
sssS'sketch'
p17
(dp18
I10
(dp19
g5
g9
sg10
F2.427905797958374
ssI20
(dp20
g5
g12
sg10
F1.9749469757080078
ssI5
(dp21
g5
g14
sg10
F1.4902918338775635
ssI15
(dp22
g5
g16
sg10
F1.9520759582519531
sss.