(dp1
S'opt'
p2
(dp3
sS'sketch'
p4
(dp5
I10
(dp6
S'cost'
p7
cnumpy.core.multiarray
scalar
p8
(cnumpy
dtype
p9
(S'f8'
I0
I1
tRp10
(I3
S'<'
NNNI-1
I-1
I0
tbS'\xc1\xfd\x9c\x99\xcc\xd1`B'
tRp11
sS'time'
p12
F0.92841315269470215
ssI20
(dp13
g7
g8
(g10
S'J\xd06\xe8\xd6\xd0`B'
tRp14
sg12
F1.2904999256134033
ssI5
(dp15
g7
g8
(g10
S't9 =\xec\xd2`B'
tRp16
sg12
F1.2112681865692139
ssI15
(dp17
g7
g8
(g10
S'\xf45\x00i \xd1`B'
tRp18
sg12
F1.037261962890625
sss.