(dp1
S'opt'
p2
(dp3
I10
(dp4
S'cost'
p5
cnumpy.core.multiarray
scalar
p6
(cnumpy
dtype
p7
(S'f8'
I0
I1
tRp8
(I3
S'<'
NNNI-1
I-1
I0
tbS'\xac\xb8-\x82\xf9i2B'
tRp9
sS'time'
p10
F46.625611066818237
ssI20
(dp11
g5
g6
(g8
S'\x14>/\xe9\xf6 1B'
tRp12
sg10
F84.177781105041504
ssI5
(dp13
g5
g6
(g8
S'\x8f\x7ff\xc2\xce\x174B'
tRp14
sg10
F68.598924875259399
ssI15
(dp15
g5
g6
(g8
S'`\rHpQ\xa11B'
tRp16
sg10
F71.416198015213013
sssS'sketch'
p17
(dp18
I10
(dp19
g5
g6
(g8
S'zr\xb2:\x1a\x02aB'
tRp20
sg10
F0.44436216354370117
ssI20
(dp21
g5
g6
(g8
S'e\xce\xff\xb5\x93\xf3`B'
tRp22
sg10
F0.49367284774780273
ssI5
(dp23
g5
g6
(g8
S'\xc8%\xa1\xad"\x19aB'
tRp24
sg10
F0.65226197242736816
ssI15
(dp25
g5
g6
(g8
S'\x16\xb91~L\xf9`B'
tRp26
sg10
F0.43730878829956055
sss.