(dp1
S'opt'
p2
(dp3
I8
(dp4
S'cost'
p5
cnumpy.core.multiarray
scalar
p6
(cnumpy
dtype
p7
(S'f8'
I0
I1
tRp8
(I3
S'<'
NNNI-1
I-1
I0
tbS'\x87\x18\x18\xaf\xf3\xe72B'
tRp9
sS'time'
p10
F2.0882711410522461
ssI16
(dp11
g5
g6
(g8
S'\xc2m\x85\xea\x0e\x841B'
tRp12
sg10
F2.418403148651123
ssI2
(dp13
g5
g6
(g8
S'\xd0\x93@`\xc2\x7f7B'
tRp14
sg10
F2.1095690727233887
ssI4
(dp15
g5
g6
(g8
S'\x87\x838\xcd\xcd\xa44B'
tRp16
sg10
F2.1026611328125
ssI32
(dp17
g5
g6
(g8
S'\xb0\x95\xb6\x051a0B'
tRp18
sg10
F2.6708588600158691
sssS'sketch'
p19
(dp20
I200
(dp21
I8
(dp22
g5
g6
(g8
S'H\xeb\x8e\xd9\xf3\xe72B'
tRp23
sg10
F3.570518970489502
ssI16
(dp24
g5
g6
(g8
S'\x07\x80\t\x14\x0f\x841B'
tRp25
sg10
F4.070993185043335
ssI2
(dp26
g5
g6
(g8
S'\xd0\x93@`\xc2\x7f7B'
tRp27
sg10
F0.84385108947753906
ssI4
(dp28
g5
g6
(g8
S'\xb3O\xe4\x18\xce\xa44B'
tRp29
sg10
F1.1622629165649414
ssI32
(dp30
g5
g6
(g8
S'\xb52\x87\xc61a0B'
tRp31
sg10
F5.4176139831542969
sssI10
(dp32
I8
(dp33
g5
g6
(g8
S'\x9e\xf1\xa0\xdb\x8b\xf22B'
tRp34
sg10
F0.80816316604614258
ssI16
(dp35
g5
g6
(g8
S'\xee\xady\x9c\xdd\x971B'
tRp36
sg10
F1.1577000617980957
ssI2
(dp37
g5
g6
(g8
S'\x9d,&?\xf6\x807B'
tRp38
sg10
F0.66167688369750977
ssI4
(dp39
g5
g6
(g8
S'\x91A&]H\xa84B'
tRp40
sg10
F0.56087613105773926
ssI32
(dp41
g5
g6
(g8
S'\r\xf6\xf0\xe2\xb2\x910B'
tRp42
sg10
F1.7642819881439209
sssI100
(dp43
I8
(dp44
g5
g6
(g8
S'&\x82\x03\x88\t\xe82B'
tRp45
sg10
F2.0881328582763672
ssI16
(dp46
g5
g6
(g8
S'@+\xb2!\x19\x831B'
tRp47
sg10
F2.5250849723815918
ssI2
(dp48
g5
g6
(g8
S'\xd0\x93@`\xc2\x7f7B'
tRp49
sg10
F0.68731498718261719
ssI4
(dp50
g5
g6
(g8
S'\xf1\xd1qf\xcd\xa44B'
tRp51
sg10
F0.81108283996582031
ssI32
(dp52
g5
g6
(g8
S'\x13\x1f\xfb1p`0B'
tRp53
sg10
F4.0418350696563721
sssI50
(dp54
I8
(dp55
g5
g6
(g8
S'V\xacv\x84\xf4\xe72B'
tRp56
sg10
F1.3533039093017578
ssI16
(dp57
g5
g6
(g8
S'Tr\x0b\x0c:\x821B'
tRp58
sg10
F1.8263299465179443
ssI2
(dp59
g5
g6
(g8
S'Hy\xd0\xc1\xc2\x7f7B'
tRp60
sg10
F0.56607413291931152
ssI4
(dp61
g5
g6
(g8
S'F\xe5Y\x99\xcf\xa44B'
tRp62
sg10
F0.7123408317565918
ssI32
(dp63
g5
g6
(g8
S'N\xe7\x11\xb4\xdc_0B'
tRp64
sg10
F2.6602301597595215
ssss.