(dp1
S'opt'
p2
(dp3
I8
(dp4
S'cost'
p5
cnumpy.core.multiarray
scalar
p6
(cnumpy
dtype
p7
(S'f8'
I0
I1
tRp8
(I3
S'<'
NNNI-1
I-1
I0
tbS'\xc3\xf3a\xfc\xfa\xe72B'
tRp9
sS'time'
p10
F5.0238220691680908
ssI16
(dp11
g5
g6
(g8
S'\x11\x98\x8b\x97\xc9\x821B'
tRp12
sg10
F2.3501849174499512
ssI2
(dp13
g5
g6
(g8
S'\xd0\x93@`\xc2\x7f7B'
tRp14
sg10
F2.1549010276794434
ssI4
(dp15
g5
g6
(g8
S'\xc8\xdb4\xac\xcc\xa44B'
tRp16
sg10
F1.9763200283050537
ssI32
(dp17
g5
g6
(g8
S'\xe5H\x08\xf5\x15b0B'
tRp18
sg10
F6.6550741195678711
sssS'sketch'
p19
(dp20
I10
(dp21
I8
(dp22
g5
g6
(g8
S'o\xd5\x9b\x81\n\xf32B'
tRp23
sg10
F0.68571686744689941
ssI16
(dp24
g5
g6
(g8
S'\xab\xf6\x0fp\x97\x981B'
tRp25
sg10
F1.0832340717315674
ssI2
(dp26
g5
g6
(g8
S'\x1a\xbc\xeeI\x08\x817B'
tRp27
sg10
F0.67624998092651367
ssI4
(dp28
g5
g6
(g8
S'\xd2\xe0\x859?\xa84B'
tRp29
sg10
F0.61397218704223633
ssI32
(dp30
g5
g6
(g8
S'\xf4\xec\x8dw\xe6\x8e0B'
tRp31
sg10
F1.8043949604034424
sssI20
(dp32
I8
(dp33
g5
g6
(g8
S',\x01\xc1\x1bP\xe82B'
tRp34
sg10
F0.98589706420898438
ssI16
(dp35
g5
g6
(g8
S'h\x9f\x81h}\x831B'
tRp36
sg10
F1.1366682052612305
ssI2
(dp37
g5
g6
(g8
S'\xbe\n\xc4\xc4\xc5\x7f7B'
tRp38
sg10
F0.52388906478881836
ssI4
(dp39
g5
g6
(g8
S'r\xe36,\xe0\xa44B'
tRp40
sg10
F0.64143896102905273
ssI32
(dp41
g5
g6
(g8
S'S=\x97\rIb0B'
tRp42
sg10
F2.7158210277557373
sssI50
(dp43
I8
(dp44
g5
g6
(g8
S'|\xc8\xdc\x93\t\xe82B'
tRp45
sg10
F1.4972329139709473
ssI16
(dp46
g5
g6
(g8
S'cW\x84\xce\xcf\x821B'
tRp47
sg10
F2.0400280952453613
ssI2
(dp48
g5
g6
(g8
S'Hy\xd0\xc1\xc2\x7f7B'
tRp49
sg10
F0.6305849552154541
ssI4
(dp50
g5
g6
(g8
S'{\xac>\xfa\xcd\xa44B'
tRp51
sg10
F0.63231611251831055
ssI32
(dp52
g5
g6
(g8
S'\x82\xbe\x80-&b0B'
tRp53
sg10
F3.3820970058441162
sssI30
(dp54
I8
(dp55
g5
g6
(g8
S'\x91 2\xf7\r\xe82B'
tRp56
sg10
F1.2627379894256592
ssI16
(dp57
g5
g6
(g8
S'\xb6\x87\xafS\x7f\x831B'
tRp58
sg10
F2.002155065536499
ssI2
(dp59
g5
g6
(g8
S'\xa3i\x19\x12\xc3\x7f7B'
tRp60
sg10
F0.51132917404174805
ssI4
(dp61
g5
g6
(g8
S'0\x14\xe97\xda\xa44B'
tRp62
sg10
F0.57211899757385254
ssI32
(dp63
g5
g6
(g8
S'"#\x028<`0B'
tRp64
sg10
F2.1712570190429688
ssss.