(dp1
S'opt'
p2
(dp3
I40
(dp4
S'cost'
p5
cnumpy.core.multiarray
scalar
p6
(cnumpy
dtype
p7
(S'f8'
I0
I1
tRp8
(I3
S'<'
NNNI-1
I-1
I0
tbS'h\x9fF\xddA\x0f0B'
tRp9
sS'time'
p10
F81.327944040298462
ssI10
(dp11
g5
g6
(g8
S'\x1b\xaa\xa0\xd2\x15j2B'
tRp12
sg10
F59.627178907394409
ssI20
(dp13
g5
g6
(g8
S'\x06\xb0\xe1\xe1\xc2 1B'
tRp14
sg10
F75.392817974090576
ssI30
(dp15
g5
g6
(g8
S'PY\x03\x17\x91|0B'
tRp16
sg10
F71.896701812744141
sssS'sketch'
p17
(dp18
I200
(dp19
I40
(dp20
g5
g6
(g8
S'"\\P\xc6-\x110B'
tRp21
sg10
F6.2060959339141846
ssI10
(dp22
g5
g6
(g8
S'\x06\x0b\x90\r\xf2i2B'
tRp23
sg10
F4.5180380344390869
ssI20
(dp24
g5
g6
(g8
S'\xda\xdd\xd1\xcbp 1B'
tRp25
sg10
F6.1303589344024658
ssI30
(dp26
g5
g6
(g8
S'j\xdc\xc3\x04\xff}0B'
tRp27
sg10
F6.2339489459991455
sssI50
(dp28
I40
(dp29
g5
g6
(g8
S'\x84A\xce\xd8\xab\x0e0B'
tRp30
sg10
F3.4622070789337158
ssI10
(dp31
g5
g6
(g8
S'\xc4\x10N \xf6i2B'
tRp32
sg10
F1.7338199615478516
ssI20
(dp33
g5
g6
(g8
S'9S\x04\x0b\xe0 1B'
tRp34
sg10
F2.0767269134521484
ssI30
(dp35
g5
g6
(g8
S'\x83\x8b.N\x97v0B'
tRp36
sg10
F2.899029016494751
sssI100
(dp37
I40
(dp38
g5
g6
(g8
S't\xa7\x93\xdaC\x0e0B'
tRp39
sg10
F4.0988659858703613
ssI10
(dp40
g5
g6
(g8
S'\xf3\x1a\x83\x99\xfbi2B'
tRp41
sg10
F2.430243968963623
ssI20
(dp42
g5
g6
(g8
S'\x1e,\xbf\xaaa\x1f1B'
tRp43
sg10
F4.0475521087646484
ssI30
(dp44
g5
g6
(g8
S'01:\xce\xb1y0B'
tRp45
sg10
F3.958575963973999
ssss.