(dp1
S'opt'
p2
(dp3
sS'sketch'
p4
(dp5
I200
(dp6
I10
(dp7
S'cost'
p8
cnumpy.core.multiarray
scalar
p9
(cnumpy
dtype
p10
(S'f8'
I0
I1
tRp11
(I3
S'<'
NNNI-1
I-1
I0
tbS'\xfar+\xfe\xe2i2B'
tRp12
sS'time'
p13
F3.5299370288848877
ssI20
(dp14
g8
g9
(g11
S'\xc2\xc7\xfe\xa6\x94"1B'
tRp15
sg13
F5.6849780082702637
ssI5
(dp16
g8
g9
(g11
S'\x053\x87O\xc3\x174B'
tRp17
sg13
F2.3654248714447021
ssI15
(dp18
g8
g9
(g11
S'\x89\xd7\x8eV\x00\xa51B'
tRp19
sg13
F4.020927906036377
sssI50
(dp20
I10
(dp21
g8
g9
(g11
S'(\xec\xe8\xb7\xfai2B'
tRp22
sg13
F1.5689070224761963
ssI20
(dp23
g8
g9
(g11
S'\xd9,%\x08;\x1f1B'
tRp24
sg13
F2.3278610706329346
ssI5
(dp25
g8
g9
(g11
S'Q\xf3\x7fD\xc0\x174B'
tRp26
sg13
F1.6450510025024414
ssI15
(dp27
g8
g9
(g11
S'\xb9a\xbf\x18\x01\xa21B'
tRp28
sg13
F1.9428479671478271
sssI100
(dp29
I10
(dp30
g8
g9
(g11
S'F&\x14\xf9\xfdi2B'
tRp31
sg13
F2.1435999870300293
ssI20
(dp32
g8
g9
(g11
S'}9\xb0\xca\x81!1B'
tRp33
sg13
F3.7308011054992676
ssI5
(dp34
g8
g9
(g11
S'zA6\xf8\xc2\x174B'
tRp35
sg13
F2.1028029918670654
ssI15
(dp36
g8
g9
(g11
S'Z\xb0S\x91\x7f\xa51B'
tRp37
sg13
F2.453909158706665
ssss.