(dp1
S'opt'
p2
(dp3
I8
(dp4
S'cost'
p5
cnumpy.core.multiarray
scalar
p6
(cnumpy
dtype
p7
(S'f8'
I0
I1
tRp8
(I3
S'<'
NNNI-1
I-1
I0
tbS'{\xb6@\x0c\x02\xe82B'
tRp9
sS'time'
p10
F2.1095719337463379
ssI16
(dp11
g5
g6
(g8
S'\x9b\xb93\x8d2\x831B'
tRp12
sg10
F2.7121970653533936
ssI2
(dp13
g5
g6
(g8
S'\xd0\x93@`\xc2\x7f7B'
tRp14
sg10
F1.9575719833374023
ssI4
(dp15
g5
g6
(g8
S'dI\x93z\xce\xa44B'
tRp16
sg10
F2.1168448925018311
ssI32
(dp17
g5
g6
(g8
S't\xd7\x05S\xa7c0B'
tRp18
sg10
F3.5571169853210449
sssS'sketch'
p19
(dp20
I200
(dp21
I8
(dp22
g5
g6
(g8
S'{\xb6@\x0c\x02\xe82B'
tRp23
sg10
F3.8367998600006104
ssI16
(dp24
g5
g6
(g8
S'iU\xd3\xf02\x831B'
tRp25
sg10
F5.5138051509857178
ssI2
(dp26
g5
g6
(g8
S'\xd0\x93@`\xc2\x7f7B'
tRp27
sg10
F0.88175606727600098
ssI4
(dp28
g5
g6
(g8
S'dI\x93z\xce\xa44B'
tRp29
sg10
F1.3013548851013184
ssI32
(dp30
g5
g6
(g8
S'r\xbe\xbe\x97\xacc0B'
tRp31
sg10
F6.8396539688110352
sssI10
(dp32
I8
(dp33
g5
g6
(g8
S'\xd8\xc3X\xd0_\xf32B'
tRp34
sg10
F0.89853715896606445
ssI16
(dp35
g5
g6
(g8
S'\x1a\xe2;\xfa\x1f\x981B'
tRp36
sg10
F1.2417271137237549
ssI2
(dp37
g5
g6
(g8
S'\x0f\xfb9\xda\t\x817B'
tRp38
sg10
F0.63942384719848633
ssI4
(dp39
g5
g6
(g8
S'\xbe\x1d\x942\x16\xa84B'
tRp40
sg10
F0.57016897201538086
ssI32
(dp41
g5
g6
(g8
S'\xcb\x90M\xb9 \x920B'
tRp42
sg10
F1.5917880535125732
sssI20
(dp43
I8
(dp44
g5
g6
(g8
S'T\xf7\x1f\x19G\xe82B'
tRp45
sg10
F0.93941688537597656
ssI16
(dp46
g5
g6
(g8
S'\xdcE\x95\x96\x84\x841B'
tRp47
sg10
F1.3623340129852295
ssI2
(dp48
g5
g6
(g8
S'\xd0#\xc1\xbf\xc5\x7f7B'
tRp49
sg10
F0.44002199172973633
ssI4
(dp50
g5
g6
(g8
S'\x07\xcc`Q\xe3\xa44B'
tRp51
sg10
F0.58671212196350098
ssI32
(dp52
g5
g6
(g8
S'\x1b\x17-\xd7\x0b`0B'
tRp53
sg10
F2.2205898761749268
sssI50
(dp54
I8
(dp55
g5
g6
(g8
S'\xd4\x1dg\xde\xfd\xe72B'
tRp56
sg10
F1.4583029747009277
ssI16
(dp57
g5
g6
(g8
S'NB\xfa\xca\xd2\x831B'
tRp58
sg10
F2.1525449752807617
ssI2
(dp59
g5
g6
(g8
S'Hy\xd0\xc1\xc2\x7f7B'
tRp60
sg10
F0.53969693183898926
ssI4
(dp61
g5
g6
(g8
S'\xf2\xbbIL\xcf\xa44B'
tRp62
sg10
F0.5885779857635498
ssI32
(dp63
g5
g6
(g8
S'?\x82\xd8\xdc\xcd`0B'
tRp64
sg10
F2.9398179054260254
sssI30
(dp65
I8
(dp66
g5
g6
(g8
S'YD\x0c\xd2\x05\xe82B'
tRp67
sg10
F1.1401870250701904
ssI16
(dp68
g5
g6
(g8
S'~\xc3\xd6\xefk\x821B'
tRp69
sg10
F1.464601993560791
ssI2
(dp70
g5
g6
(g8
S'\xa3i\x19\x12\xc3\x7f7B'
tRp71
sg10
F0.44411802291870117
ssI4
(dp72
g5
g6
(g8
S'7\x8f\x1d\xe2\xdc\xa44B'
tRp73
sg10
F0.5631251335144043
ssI32
(dp74
g5
g6
(g8
S'\x179dv\xd1a0B'
tRp75
sg10
F2.2467138767242432
ssss.