(dp1
S'opt'
p2
(dp3
sS'sketch'
p4
(dp5
I200
(dp6
I10
(dp7
S'cost'
p8
cnumpy.core.multiarray
scalar
p9
(cnumpy
dtype
p10
(S'f8'
I0
I1
tRp11
(I3
S'<'
NNNI-1
I-1
I0
tbS'\xc0X\x84\xe6\xf9i2B'
tRp12
sS'time'
p13
F4.4286439418792725
ssI20
(dp14
g8
g9
(g11
S'\xf3l\xcd{\xed 1B'
tRp15
sg13
F5.3176040649414062
ssI5
(dp16
g8
g9
(g11
S'\xfd\xedO\xc5\xc1\x174B'
tRp17
sg13
F3.8103029727935791
ssI15
(dp18
g8
g9
(g11
S'\xd69\xdf\x1av\xa01B'
tRp19
sg13
F4.8096661567687988
sssI50
(dp20
I10
(dp21
g8
g9
(g11
S'76\x7f\xc1\xe8i2B'
tRp22
sg13
F1.7153229713439941
ssI20
(dp23
g8
g9
(g11
S'\x08\xb5\xc4q6\x1f1B'
tRp24
sg13
F2.5218451023101807
ssI5
(dp25
g8
g9
(g11
S'\xa1\xdd\x8f\xeb\xc0\x174B'
tRp26
sg13
F1.7274010181427002
ssI15
(dp27
g8
g9
(g11
S'\x14\x0c\xc4z\x89\xa21B'
tRp28
sg13
F2.0375130176544189
sssI100
(dp29
I10
(dp30
g8
g9
(g11
S'\xd7\xbcQ2\xe9i2B'
tRp31
sg13
F1.9164409637451172
ssI20
(dp32
g8
g9
(g11
S'\x8cc\x97\xe5? 1B'
tRp33
sg13
F3.8032879829406738
ssI5
(dp34
g8
g9
(g11
S'7E*\x10\xf8\x174B'
tRp35
sg13
F1.5018520355224609
ssI15
(dp36
g8
g9
(g11
S'6\xd0Y\x91\xed\xa01B'
tRp37
sg13
F2.6341910362243652
ssss.