(dp1
S'opt'
p2
(dp3
I40
(dp4
S'cost'
p5
cnumpy.core.multiarray
scalar
p6
(cnumpy
dtype
p7
(S'f8'
I0
I1
tRp8
(I3
S'<'
NNNI-1
I-1
I0
tbS'\xe6^\xce\x96y\x0f0B'
tRp9
sS'time'
p10
F95.582803010940552
ssI10
(dp11
g5
g6
(g8
S'\xea@\xd8\x91\x05j2B'
tRp12
sg10
F43.039616823196411
ssI20
(dp13
g5
g6
(g8
S'\xd2\xd7\x0fE\xef\x1e1B'
tRp14
sg10
F71.076996088027954
ssI30
(dp15
g5
g6
(g8
S'\xf7a8y.|0B'
tRp16
sg10
F90.492047071456909
sssS'sketch'
p17
(dp18
I200
(dp19
I40
(dp20
g5
g6
(g8
S'\x1b\xb3\x05g\x07\x0f0B'
tRp21
sg10
F6.3495409488677979
ssI10
(dp22
g5
g6
(g8
S'0\x82|\xa2\xfci2B'
tRp23
sg10
F2.8914279937744141
ssI20
(dp24
g5
g6
(g8
S'\xbb\xb7\x8c\x00\x94 1B'
tRp25
sg10
F7.3256900310516357
ssI30
(dp26
g5
g6
(g8
S'=0\x81\xee\xf8y0B'
tRp27
sg10
F6.1286740303039551
sssI50
(dp28
I40
(dp29
g5
g6
(g8
S'\xbb\xbb!2$\x0c0B'
tRp30
sg10
F3.1430201530456543
ssI10
(dp31
g5
g6
(g8
S'\x16\xf6\x8e\x03\x15j2B'
tRp32
sg10
F1.4934890270233154
ssI20
(dp33
g5
g6
(g8
S'\x91\xb2R\x07&\x1f1B'
tRp34
sg10
F2.1595268249511719
ssI30
(dp35
g5
g6
(g8
S'\x0f5e\x8b\xaey0B'
tRp36
sg10
F3.0758960247039795
sssI100
(dp37
I40
(dp38
g5
g6
(g8
S"\xec'\x14H\xa7\r0B"
tRp39
sg10
F4.2114088535308838
ssI10
(dp40
g5
g6
(g8
S'&\x1a>x\nj2B'
tRp41
sg10
F1.6661238670349121
ssI20
(dp42
g5
g6
(g8
S'}\x10\x847\xb8 1B'
tRp43
sg10
F3.0068659782409668
ssI30
(dp44
g5
g6
(g8
S'\x84\xa7\xc7)\xfbz0B'
tRp45
sg10
F3.6765589714050293
ssss.