(dp1
S'opt'
p2
(dp3
I8
(dp4
S'cost'
p5
cnumpy.core.multiarray
scalar
p6
(cnumpy
dtype
p7
(S'f8'
I0
I1
tRp8
(I3
S'<'
NNNI-1
I-1
I0
tbS'i?\xe0&\xf5\xe72B'
tRp9
sS'time'
p10
F2.1445250511169434
ssI16
(dp11
g5
g6
(g8
S'}\xc8\xc0\xf9\x18\x831B'
tRp12
sg10
F2.8018059730529785
ssI2
(dp13
g5
g6
(g8
S'\xd0\x93@`\xc2\x7f7B'
tRp14
sg10
F2.0296850204467773
ssI4
(dp15
g5
g6
(g8
S'\xb1\xd1\xd7\xeb\xcc\xa44B'
tRp16
sg10
F2.3260018825531006
ssI32
(dp17
g5
g6
(g8
S'[\x8f[O\x1fa0B'
tRp18
sg10
F2.9478981494903564
sssS'sketch'
p19
(dp20
I10
(dp21
I8
(dp22
g5
g6
(g8
S'\x8bx\xa8aa\xf32B'
tRp23
sg10
F0.72024893760681152
ssI16
(dp24
g5
g6
(g8
S'*\x0cp\xf2\xe6\x971B'
tRp25
sg10
F1.178372859954834
ssI2
(dp26
g5
g6
(g8
S'l\xb8\x9fQ\x02\x817B'
tRp27
sg10
F0.68678498268127441
ssI4
(dp28
g5
g6
(g8
S'P\xf0\x89\x94\x05\xa84B'
tRp29
sg10
F0.63010692596435547
ssI32
(dp30
g5
g6
(g8
S'\xa4\xa6\x8f\xf80\x900B'
tRp31
sg10
F1.5030698776245117
sssI100
(dp32
I8
(dp33
g5
g6
(g8
S'i?\xe0&\xf5\xe72B'
tRp34
sg10
F2.2082400321960449
ssI16
(dp35
g5
g6
(g8
S'\x94\xd0f\x99\x19\x831B'
tRp36
sg10
F3.3643190860748291
ssI2
(dp37
g5
g6
(g8
S'\xd0\x93@`\xc2\x7f7B'
tRp38
sg10
F0.61761283874511719
ssI4
(dp39
g5
g6
(g8
S'\xf1\xd1qf\xcd\xa44B'
tRp40
sg10
F0.82509303092956543
ssI32
(dp41
g5
g6
(g8
S'\x0f\x7f\x07N#a0B'
tRp42
sg10
F4.8536500930786133
sssI50
(dp43
I8
(dp44
g5
g6
(g8
S'|\n$(\x00\xe82B'
tRp45
sg10
F1.6798510551452637
ssI16
(dp46
g5
g6
(g8
S'\xbd\x98\xec\x19}\x821B'
tRp47
sg10
F1.8376219272613525
ssI2
(dp48
g5
g6
(g8
S'Hy\xd0\xc1\xc2\x7f7B'
tRp49
sg10
F0.60555696487426758
ssI4
(dp50
g5
g6
(g8
S'\xf2\xbbIL\xcf\xa44B'
tRp51
sg10
F0.69871997833251953
ssI32
(dp52
g5
g6
(g8
S'\xb4\xec\xf4\x90+a0B'
tRp53
sg10
F2.9022741317749023
sssI30
(dp54
I8
(dp55
g5
g6
(g8
S'K\xbb\x9e\xc5\xfa\xe72B'
tRp56
sg10
F1.1309380531311035
ssI16
(dp57
g5
g6
(g8
S'\x95\xdc\x1c3n\x861B'
tRp58
sg10
F1.4476149082183838
ssI2
(dp59
g5
g6
(g8
S'_dLu\xc2\x7f7B'
tRp60
sg10
F0.5077211856842041
ssI4
(dp61
g5
g6
(g8
S'5\xf89\xe6\xd9\xa44B'
tRp62
sg10
F0.63815402984619141
ssI32
(dp63
g5
g6
(g8
S'\x99R\x02\x05]a0B'
tRp64
sg10
F2.6728789806365967
ssss.