(dp1
S'opt'
p2
(dp3
I8
(dp4
S'cost'
p5
cnumpy.core.multiarray
scalar
p6
(cnumpy
dtype
p7
(S'f8'
I0
I1
tRp8
(I3
S'<'
NNNI-1
I-1
I0
tbS'\xe8#I\xd1\xf6\xe72B'
tRp9
sS'time'
p10
F2.2571427822113037
ssI16
(dp11
g5
g6
(g8
S'l\x16\x05\x16d\x841B'
tRp12
sg10
F2.2449748516082764
ssI2
(dp13
g5
g6
(g8
S'U\xc8\x97t\xc2\x7f7B'
tRp14
sg10
F2.2064330577850342
ssI4
(dp15
g5
g6
(g8
S'V\xf1\x14\x0b\xcd\xa44B'
tRp16
sg10
F2.2299809455871582
ssI32
(dp17
g5
g6
(g8
S'\xe3z\xd4\xd1\xd8`0B'
tRp18
sg10
F3.4828500747680664
sssS'sketch'
p19
(dp20
I100
(dp21
I8
(dp22
g5
g6
(g8
S'f\x02\x1bL\xf7\xe72B'
tRp23
sg10
F1.8027191162109375
ssI16
(dp24
g5
g6
(g8
S'F\x94\xc9\x1bf\x841B'
tRp25
sg10
F3.1586959362030029
ssI2
(dp26
g5
g6
(g8
S'U\xc8\x97t\xc2\x7f7B'
tRp27
sg10
F0.76414012908935547
ssI4
(dp28
g5
g6
(g8
S'\x12\xc3!>\xcd\xa44B'
tRp29
sg10
F0.83488202095031738
ssI32
(dp30
g5
g6
(g8
S'i\xe5\xc2\xcc\xdd`0B'
tRp31
sg10
F3.119704008102417
sssI10
(dp32
I8
(dp33
g5
g6
(g8
S'\xcd5\xf8\xdb\xff\xf22B'
tRp34
sg10
F0.83233809471130371
ssI16
(dp35
g5
g6
(g8
S'8\xb7\xbe\x94\t\x981B'
tRp36
sg10
F1.1477940082550049
ssI2
(dp37
g5
g6
(g8
S'R\xb2\x06\x88\n\x817B'
tRp38
sg10
F0.66353797912597656
ssI4
(dp39
g5
g6
(g8
S'\xd0R4\xf5V\xa84B'
tRp40
sg10
F0.6073310375213623
ssI32
(dp41
g5
g6
(g8
S'\t\xac\xf1S\xb2\x910B'
tRp42
sg10
F1.6282939910888672
sssI20
(dp43
I8
(dp44
g5
g6
(g8
S'\x91\xa00C5\xe82B'
tRp45
sg10
F0.88182902336120605
ssI16
(dp46
g5
g6
(g8
S"'\x07\xa9~\x10\x831B"
tRp47
sg10
F1.3950419425964355
ssI2
(dp48
g5
g6
(g8
S'\xd0#\xc1\xbf\xc5\x7f7B'
tRp49
sg10
F0.52875399589538574
ssI4
(dp50
g5
g6
(g8
S'>\xf8\xe6~\xe1\xa44B'
tRp51
sg10
F0.60589909553527832
ssI32
(dp52
g5
g6
(g8
S'+E\x0f*\x95d0B'
tRp53
sg10
F2.3579630851745605
sssI30
(dp54
I8
(dp55
g5
g6
(g8
S':\xcb\xcbi\x06\xe82B'
tRp56
sg10
F1.029285192489624
ssI16
(dp57
g5
g6
(g8
S'\x04\x84\xd5\x9d<\x841B'
tRp58
sg10
F1.7323629856109619
ssI2
(dp59
g5
g6
(g8
S'I\xdb\xa6\xf0\xc2\x7f7B'
tRp60
sg10
F0.50467205047607422
ssI4
(dp61
g5
g6
(g8
S'\xef\xb5\x89\x83\xdc\xa44B'
tRp62
sg10
F0.61924099922180176
ssI32
(dp63
g5
g6
(g8
S'\x9d\x0f\xef\x15\xe8^0B'
tRp64
sg10
F2.1640920639038086
sssI15
(dp65
I8
(dp66
g5
g6
(g8
S'\xc1a\x14\x18\x02\xe92B'
tRp67
sg10
F0.83272314071655273
ssI16
(dp68
g5
g6
(g8
S'\xc6\xd2\xa7\xc2=\x841B'
tRp69
sg10
F1.3307409286499023
ssI2
(dp70
g5
g6
(g8
S'F#z\xcb\xcf\x7f7B'
tRp71
sg10
F0.50224184989929199
ssI4
(dp72
g5
g6
(g8
S'\xea7\x8e\x1a\xe9\xa44B'
tRp73
sg10
F0.67318987846374512
ssI32
(dp74
g5
g6
(g8
S'k\x81\x95=\x13f0B'
tRp75
sg10
F1.6862258911132812
ssss.