(dp1
S'opt'
p2
(dp3
I8
(dp4
S'cost'
p5
cnumpy.core.multiarray
scalar
p6
(cnumpy
dtype
p7
(S'f8'
I0
I1
tRp8
(I3
S'<'
NNNI-1
I-1
I0
tbS"\xcc\x0b\xd0'\xf7\xe72B"
tRp9
sS'time'
p10
F61.634267091751099
ssI16
(dp11
g5
g6
(g8
S'\xf1\xe5\xfff\xd2\x821B'
tRp12
sg10
F96.695307970046997
ssI2
(dp13
g5
g6
(g8
S'\xd0\x93@`\xc2\x7f7B'
tRp14
sg10
F11.297099113464355
ssI4
(dp15
g5
g6
(g8
S'\xa1\x9e\x1d\x13\xcd\xa44B'
tRp16
sg10
F17.272053003311157
ssI32
(dp17
g5
g6
(g8
S'\xe8\xaa\xfd\x1e\xa4b0B'
tRp18
sg10
F65.475419044494629
sssS'sketch'
p19
(dp20
I200
(dp21
I8
(dp22
g5
g6
(g8
S'\x0bHJ\x87\t\xe82B'
tRp23
sg10
F3.5463178157806396
ssI16
(dp24
g5
g6
(g8
S'\xb3\x88\xa3\xca\xb2\x821B'
tRp25
sg10
F5.2505989074707031
ssI2
(dp26
g5
g6
(g8
S'\xd0\x93@`\xc2\x7f7B'
tRp27
sg10
F1.0315828323364258
ssI4
(dp28
g5
g6
(g8
S'c\xf8\xbe\x0e\xcd\xa44B'
tRp29
sg10
F1.3719339370727539
ssI32
(dp30
g5
g6
(g8
S'\x11\x83\xccM\xd4a0B'
tRp31
sg10
F5.9980390071868896
sssI50
(dp32
I8
(dp33
g5
g6
(g8
S'>p\xa1\t\xf9\xe72B'
tRp34
sg10
F1.2724769115447998
ssI16
(dp35
g5
g6
(g8
S'y\x87\xd4\x19\x1d\x821B'
tRp36
sg10
F2.1858780384063721
ssI2
(dp37
g5
g6
(g8
S'Hy\xd0\xc1\xc2\x7f7B'
tRp38
sg10
F0.78590512275695801
ssI4
(dp39
g5
g6
(g8
S'\xf2\xbbIL\xcf\xa44B'
tRp40
sg10
F0.61136579513549805
ssI32
(dp41
g5
g6
(g8
S'$\x8da\x96B`0B'
tRp42
sg10
F3.3072030544281006
sssI100
(dp43
I8
(dp44
g5
g6
(g8
S'J\xdc^\x13\x04\xe82B'
tRp45
sg10
F2.4782178401947021
ssI16
(dp46
g5
g6
(g8
S'9\x0eB\xda\x1e\x831B'
tRp47
sg10
F2.9888238906860352
ssI2
(dp48
g5
g6
(g8
S'\xd0\x93@`\xc2\x7f7B'
tRp49
sg10
F0.62090516090393066
ssI4
(dp50
g5
g6
(g8
S'\xf1\xd1qf\xcd\xa44B'
tRp51
sg10
F0.83678793907165527
ssI32
(dp52
g5
g6
(g8
S'\xe0\xd2\xf4\xe0\x9db0B'
tRp53
sg10
F3.8293740749359131
ssss.