(dp1
S'opt'
p2
(dp3
I10
(dp4
S'cost'
p5
cnumpy.core.multiarray
scalar
p6
(cnumpy
dtype
p7
(S'f8'
I0
I1
tRp8
(I3
S'<'
NNNI-1
I-1
I0
tbS'\x16\x0b\xb6\x8c\xe6i2B'
tRp9
sS'time'
p10
F66.582441806793213
ssI20
(dp11
g5
g6
(g8
S'pC:\x13,!1B'
tRp12
sg10
F91.35392689704895
ssI5
(dp13
g5
g6
(g8
S'\x02&J8\xbd\x174B'
tRp14
sg10
F65.015328884124756
ssI15
(dp15
g5
g6
(g8
S'\x9dD{$O\xa41B'
tRp16
sg10
F67.450185060501099
sssS'sketch'
p17
(dp18
I10
(dp19
g5
g6
(g8
S'\x1dQE\xa4\xe0i2B'
tRp20
sg10
F4.6915791034698486
ssI20
(dp21
g5
g6
(g8
S"\xaa>\x0f\xb8\x1a'1B"
tRp22
sg10
F6.2074131965637207
ssI5
(dp23
g5
g6
(g8
S'H0P\xd9\xce\x174B'
tRp24
sg10
F4.1249668598175049
ssI15
(dp25
g5
g6
(g8
S'\xde\xf4\xefo\xd9\xa01B'
tRp26
sg10
F5.0092320442199707
sss.