(dp1
S'opt'
p2
(dp3
I8
(dp4
S'cost'
p5
cnumpy.core.multiarray
scalar
p6
(cnumpy
dtype
p7
(S'f8'
I0
I1
tRp8
(I3
S'<'
NNNI-1
I-1
I0
tbS'`Y=c\xf5\xe72B'
tRp9
sS'time'
p10
F2.9480118751525879
ssI16
(dp11
g5
g6
(g8
S'\xdc\x85c\xeeE\x821B'
tRp12
sg10
F2.639941930770874
ssI2
(dp13
g5
g6
(g8
S'\xd0\x93@`\xc2\x7f7B'
tRp14
sg10
F1.9306879043579102
ssI4
(dp15
g5
g6
(g8
S'\x87n\xcc\xbd\xcc\xa44B'
tRp16
sg10
F2.1431097984313965
ssI32
(dp17
g5
g6
(g8
S'\xb2\xbb\x91T\xbfb0B'
tRp18
sg10
F2.4415988922119141
sssS'sketch'
p19
(dp20
I200
(dp21
I8
(dp22
g5
g6
(g8
S'\x07\xf1\xdf\xee\xf6\xe72B'
tRp23
sg10
F3.5669400691986084
ssI16
(dp24
g5
g6
(g8
S'\x96,\xd8DF\x821B'
tRp25
sg10
F5.9602739810943604
ssI2
(dp26
g5
g6
(g8
S'\xd0\x93@`\xc2\x7f7B'
tRp27
sg10
F0.88879680633544922
ssI4
(dp28
g5
g6
(g8
S'\x87n\xcc\xbd\xcc\xa44B'
tRp29
sg10
F1.2787339687347412
ssI32
(dp30
g5
g6
(g8
S'\xb2\xbb\x91T\xbfb0B'
tRp31
sg10
F6.336665153503418
sssI50
(dp32
I8
(dp33
g5
g6
(g8
S'R\xd0h\x08\xf4\xe72B'
tRp34
sg10
F1.3527398109436035
ssI16
(dp35
g5
g6
(g8
S's\xccL\xef\xb6\x821B'
tRp36
sg10
F2.2345418930053711
ssI2
(dp37
g5
g6
(g8
S'\x08\x91i\x97\xc2\x7f7B'
tRp38
sg10
F0.76760697364807129
ssI4
(dp39
g5
g6
(g8
S'+&\xd3E\xce\xa44B'
tRp40
sg10
F0.77285408973693848
ssI32
(dp41
g5
g6
(g8
S'\x87I\x96a\x05a0B'
tRp42
sg10
F2.6934590339660645
sssI100
(dp43
I8
(dp44
g5
g6
(g8
S'\xf4*\xde\xaa\xf1\xe72B'
tRp45
sg10
F2.3965160846710205
ssI16
(dp46
g5
g6
(g8
S'\xb8\xb6\x0e\xd0\x8e\x831B'
tRp47
sg10
F2.8555080890655518
ssI2
(dp48
g5
g6
(g8
S'\xf0\xf3\xb3[\xc2\x7f7B'
tRp49
sg10
F0.70343708992004395
ssI4
(dp50
g5
g6
(g8
S'\xd7\xe8\x1b\\\xce\xa44B'
tRp51
sg10
F0.89964509010314941
ssI32
(dp52
g5
g6
(g8
S'=>\xee\x15fa0B'
tRp53
sg10
F3.3815300464630127
ssss.