(dp1
S'opt'
p2
(dp3
I8
(dp4
S'cost'
p5
cnumpy.core.multiarray
scalar
p6
(cnumpy
dtype
p7
(S'f8'
I0
I1
tRp8
(I3
S'<'
NNNI-1
I-1
I0
tbS'\x85\x88\x19=\xfd\xe72B'
tRp9
sS'time'
p10
F3.640084981918335
ssI16
(dp11
g5
g6
(g8
S'\x0f\x11\n\x1d\xe4\x831B'
tRp12
sg10
F3.8391859531402588
ssI2
(dp13
g5
g6
(g8
S'\xd0\x93@`\xc2\x7f7B'
tRp14
sg10
F2.2303190231323242
ssI4
(dp15
g5
g6
(g8
S'\r*\xee\xac\xcc\xa44B'
tRp16
sg10
F4.6589720249176025
ssI32
(dp17
g5
g6
(g8
S'\x01\xa6\xa2\xfc\xf3`0B'
tRp18
sg10
F6.4939680099487305
sssS'sketch'
p19
(dp20
I10
(dp21
I8
(dp22
g5
g6
(g8
S'\x13n*\x12A\xf32B'
tRp23
sg10
F0.88355493545532227
ssI16
(dp24
g5
g6
(g8
S'\xbbG-:\x9e\x971B'
tRp25
sg10
F1.155134916305542
ssI2
(dp26
g5
g6
(g8
S'\x1a\xbc\xeeI\x08\x817B'
tRp27
sg10
F1.0913710594177246
ssI4
(dp28
g5
g6
(g8
S'\x86\r\x1d\xfbb\xa84B'
tRp29
sg10
F0.62978196144104004
ssI32
(dp30
g5
g6
(g8
S'\x93\x9e\xba\x0bL\x8f0B'
tRp31
sg10
F1.6421380043029785
sssI20
(dp32
I8
(dp33
g5
g6
(g8
S'\x18\x9ay\xa0I\xe82B'
tRp34
sg10
F0.87519598007202148
ssI16
(dp35
g5
g6
(g8
S'j\xbf\xcd\xf0\xc1\x821B'
tRp36
sg10
F1.3145990371704102
ssI2
(dp37
g5
g6
(g8
S'\xd0#\xc1\xbf\xc5\x7f7B'
tRp38
sg10
F0.50375819206237793
ssI4
(dp39
g5
g6
(g8
S'>\xf8\xe6~\xe1\xa44B'
tRp40
sg10
F0.55458688735961914
ssI32
(dp41
g5
g6
(g8
S'T4\x14-.b0B'
tRp42
sg10
F2.2485790252685547
sssI50
(dp43
I8
(dp44
g5
g6
(g8
S'J\x9b\x08M\xf2\xe72B'
tRp45
sg10
F1.6844589710235596
ssI16
(dp46
g5
g6
(g8
S'\xe6\rR\xee\x12\x831B'
tRp47
sg10
F2.3098688125610352
ssI2
(dp48
g5
g6
(g8
S'b\x1b\xf9s\xc2\x7f7B'
tRp49
sg10
F0.61797904968261719
ssI4
(dp50
g5
g6
(g8
S'\xf2\xbbIL\xcf\xa44B'
tRp51
sg10
F0.74472689628601074
ssI32
(dp52
g5
g6
(g8
S'\r>\xda\x06H_0B'
tRp53
sg10
F3.158195972442627
sssI30
(dp54
I8
(dp55
g5
g6
(g8
S'k\xa9\xc4\xc0\x0b\xe82B'
tRp56
sg10
F1.1080410480499268
ssI16
(dp57
g5
g6
(g8
S'\x0c[\xeck\x13\x841B'
tRp58
sg10
F1.3956677913665771
ssI2
(dp59
g5
g6
(g8
S'\xa3i\x19\x12\xc3\x7f7B'
tRp60
sg10
F0.50975203514099121
ssI4
(dp61
g5
g6
(g8
S'0\x14\xe97\xda\xa44B'
tRp62
sg10
F0.61351799964904785
ssI32
(dp63
g5
g6
(g8
S'\x13\x02F?Ga0B'
tRp64
sg10
F2.2181727886199951
sssI15
(dp65
I8
(dp66
g5
g6
(g8
S'\xd3\x8f\xcc8\xf1\xe82B'
tRp67
sg10
F0.86652588844299316
ssI16
(dp68
g5
g6
(g8
S'"\x019\xbd\x84\x841B'
tRp69
sg10
F1.2861320972442627
ssI2
(dp70
g5
g6
(g8
S'\xe3\xbaT\x07\xd8\x7f7B'
tRp71
sg10
F0.57864618301391602
ssI4
(dp72
g5
g6
(g8
S'\xf9\xc2\xed\xd1\xeb\xa44B'
tRp73
sg10
F0.60923910140991211
ssI32
(dp74
g5
g6
(g8
S'\xc9\xc3\xf2.\x9eb0B'
tRp75
sg10
F2.2032179832458496
ssss.