(dp1
S'opt'
p2
(dp3
sS'sketch'
p4
(dp5
I200
(dp6
I20
(dp7
S'cost'
p8
cnumpy.core.multiarray
scalar
p9
(cnumpy
dtype
p10
(S'f8'
I0
I1
tRp11
(I3
S'<'
NNNI-1
I-1
I0
tbS'\xe4\xc3\xf5u\xea 1B'
tRp12
sS'time'
p13
F6.2007689476013184
sssI50
(dp14
I20
(dp15
g8
g9
(g11
S'\xd2\x9c\x84\xf9\x8b\x1e1B'
tRp16
sg13
F2.4250400066375732
sssI100
(dp17
I20
(dp18
g8
g9
(g11
S'Yx\x0b\xe4\xaa\x1f1B'
tRp19
sg13
F3.1073439121246338
ssss.